; Function Attrs: mustprogress uwtable
define hidden void @_ZN4cvc58internal16ProofNodeToSExpr11getArgumentENS0_12NodeTemplateILb1EEENS1_9ArgFormatE(ptr dead_on_unwind noalias writable sret(%"class.cvc5::internal::NodeTemplate") align 8 %0, ptr noundef nonnull align 8 dereferenceable(456) %1, ptr noundef readonly captures(none) %2, i32 noundef %3) local_unnamed_addr #3 align 2 personality ptr @__gxx_personality_v0 {
  %5 = alloca %"class.cvc5::internal::NodeTemplate.142", align 8
  %6 = alloca %"class.cvc5::internal::NodeTemplate.142", align 8
  %7 = alloca %"class.cvc5::internal::NodeTemplate.142", align 8
  %8 = alloca %"class.cvc5::internal::NodeTemplate.142", align 8
  %9 = alloca %"class.cvc5::internal::NodeTemplate.142", align 8
  %10 = alloca %"class.cvc5::internal::NodeTemplate.142", align 8
  %11 = alloca %"class.cvc5::internal::NodeTemplate.142", align 8
  %12 = load ptr, ptr %2, align 8, !tbaa !68
  switch i32 %3, label %20 [
    i32 1, label %13
    i32 2, label %14
    i32 3, label %15
    i32 4, label %16
    i32 5, label %17
    i32 6, label %18
    i32 7, label %19
  ]

13:                                               ; preds = %4
  store ptr %12, ptr %5, align 8, !tbaa !108
  call void @_ZN4cvc58internal16ProofNodeToSExpr19getOrMkKindVariableENS0_12NodeTemplateILb0EEE(ptr dead_on_unwind writable sret(%"class.cvc5::internal::NodeTemplate") align 8 %0, ptr noundef nonnull align 8 dereferenceable(456) %1, ptr noundef nonnull %5)
  br label %_ZN4cvc58internal12NodeTemplateILb1EEC2ERKS2_.exit

14:                                               ; preds = %4
  store ptr %12, ptr %6, align 8, !tbaa !108
  call void @_ZN4cvc58internal16ProofNodeToSExpr23getOrMkTheoryIdVariableENS0_12NodeTemplateILb0EEE(ptr dead_on_unwind writable sret(%"class.cvc5::internal::NodeTemplate") align 8 %0, ptr noundef nonnull align 8 dereferenceable(456) %1, ptr noundef nonnull %6)
  br label %_ZN4cvc58internal12NodeTemplateILb1EEC2ERKS2_.exit

15:                                               ; preds = %4
  store ptr %12, ptr %7, align 8, !tbaa !108
  call void @_ZN4cvc58internal16ProofNodeToSExpr23getOrMkMethodIdVariableENS0_12NodeTemplateILb0EEE(ptr dead_on_unwind writable sret(%"class.cvc5::internal::NodeTemplate") align 8 %0, ptr noundef nonnull align 8 dereferenceable(456) %1, ptr noundef nonnull %7)
  br label %_ZN4cvc58internal12NodeTemplateILb1EEC2ERKS2_.exit

16:                                               ; preds = %4
  store ptr %12, ptr %8, align 8, !tbaa !108
  call void @_ZN4cvc58internal16ProofNodeToSExpr22getOrMkTrustIdVariableENS0_12NodeTemplateILb0EEE(ptr dead_on_unwind writable sret(%"class.cvc5::internal::NodeTemplate") align 8 %0, ptr noundef nonnull align 8 dereferenceable(456) %1, ptr noundef nonnull %8)
  br label %_ZN4cvc58internal12NodeTemplateILb1EEC2ERKS2_.exit

17:                                               ; preds = %4
  store ptr %12, ptr %9, align 8, !tbaa !108
  call void @_ZN4cvc58internal16ProofNodeToSExpr26getOrMkInferenceIdVariableENS0_12NodeTemplateILb0EEE(ptr dead_on_unwind writable sret(%"class.cvc5::internal::NodeTemplate") align 8 %0, ptr noundef nonnull align 8 dereferenceable(456) %1, ptr noundef nonnull %9)
  br label %_ZN4cvc58internal12NodeTemplateILb1EEC2ERKS2_.exit

18:                                               ; preds = %4
  store ptr %12, ptr %10, align 8, !tbaa !108
  call void @_ZN4cvc58internal16ProofNodeToSExpr25getOrMkDslRewriteVariableENS0_12NodeTemplateILb0EEE(ptr dead_on_unwind writable sret(%"class.cvc5::internal::NodeTemplate") align 8 %0, ptr noundef nonnull align 8 dereferenceable(456) %1, ptr noundef nonnull %10)
  br label %_ZN4cvc58internal12NodeTemplateILb1EEC2ERKS2_.exit

19:                                               ; preds = %4
  store ptr %12, ptr %11, align 8, !tbaa !108
  call void @_ZN4cvc58internal16ProofNodeToSExpr19getOrMkNodeVariableENS0_12NodeTemplateILb0EEE(ptr dead_on_unwind writable sret(%"class.cvc5::internal::NodeTemplate") align 8 %0, ptr noundef nonnull align 8 dereferenceable(456) %1, ptr noundef nonnull %11)
  br label %_ZN4cvc58internal12NodeTemplateILb1EEC2ERKS2_.exit

20:                                               ; preds = %4
  store ptr %12, ptr %0, align 8, !tbaa !68
  %21 = load i64, ptr %12, align 8
  %22 = lshr i64 %21, 40
  %23 = trunc nuw nsw i64 %22 to i32
  %24 = and i32 %23, 1048575
  %25 = icmp samesign ult i32 %24, 1048574
  br i1 %25, label %26, label %31, !prof !76

26:                                               ; preds = %20
  %27 = add i64 %21, 1099511627776
  %28 = and i64 %27, 1152920405095219200
  %29 = and i64 %21, -1152920405095219201
  %30 = or disjoint i64 %28, %29
  store i64 %30, ptr %12, align 8
  br label %_ZN4cvc58internal12NodeTemplateILb1EEC2ERKS2_.exit

31:                                               ; preds = %20
  %32 = icmp eq i32 %24, 1048574
  br i1 %32, label %33, label %_ZN4cvc58internal12NodeTemplateILb1EEC2ERKS2_.exit, !prof !75

33:                                               ; preds = %31
  %34 = or i64 %21, 1152920405095219200
  store i64 %34, ptr %12, align 8
  tail call void @_ZN4cvc58internal4expr9NodeValue20markRefCountMaxedOutEv(ptr noundef nonnull align 8 dereferenceable(24) %12)
  br label %_ZN4cvc58internal12NodeTemplateILb1EEC2ERKS2_.exit

_ZN4cvc58internal12NodeTemplateILb1EEC2ERKS2_.exit: ; preds = %13, %14, %15, %16, %17, %18, %19, %33, %31, %26
  ret void
}